cdebian_linux.config
ConfigCore
p0
(tRp1
(Vabi
p2
tp3
(dp4
Vabiname
p5
V0.deb11.7
p6
sVignore-changes
p7
(lp8
V__cpuhp_*
p9
aV__udp_gso_segment
p10
aVbpf_analyzer
p11
aVbpf_offload_dev_create
p12
aVbpf_verifier_log_write
p13
aVcxl_*
p14
aVdax_flush
p15
aVieee80211_nullfunc_get
p16
aVinet_add_protocol
p17
aVinet_del_protocol
p18
aViommu_device_*
p19
aVmm_iommu_*
p20
aVmv_mbus_*
p21
aVperf_*
p22
aVregister_cxl_calls
p23
aVregister_key_type
p24
aVunregister_cxl_calls
p25
aV*_hw_breakpoint
p26
aVmodule:drivers/crypto/ccp/*
p27
aVmodule:drivers/hv/*
p28
aVmodule:drivers/gpu/drm/sun4i/*
p29
aVmodule:drivers/iio/**
p30
aVmodule:drivers/misc/cxl/*
p31
aVmodule:drivers/misc/lis3lv02d/*
p32
aVmodule:drivers/mtd/nand/*
p33
aVmodule:drivers/net/ethernet/**
p34
aVmodule:drivers/net/wireless/**
p35
aVmodule:drivers/nvdimm/*
p36
aVmodule:drivers/nvme/**
p37
aVmodule:drivers/power/supply/bq27xxx_battery
p38
aVmodule:drivers/scsi/cxgbi/*
p39
aVmodule:drivers/scsi/libiscs*
p40
aVmodule:drivers/scsi/qla2xxx/qla2xxx
p41
aVmodule:drivers/scsi/ufs/*
p42
aVmodule:drivers/target/**
p43
aVmodule:drivers/usb/chipidea/**
p44
aVmodule:drivers/usb/gadget/**
p45
aVmodule:drivers/usb/host/**
p46
aVmodule:drivers/usb/musb/**
p47
aVmodule:fs/nfs/**
p48
aVmodule:net/ceph/libceph
p49
aVmodule:net/l2tp/**
p50
aVmodule:net/openvswitch/**
p51
aVmodule:net/rxrpc/rxrpc
p52
aVmodule:net/sctp/**
p53
aVmodule:sound/core/seq/**
p54
aVmodule:sound/firewire/snd-firewire-lib
p55
aVmodule:sound/pci/hda/*
p56
aVbtree_*
p57
aVvisitor*
p58
aVcan_rx_register
p59
aVip6_xmit
p60
aVmodule:net/dccp/dccp
p61
aVmodule:net/rds/rds
p62
aVdevfreq_*
p63
aVdevm_devfreq_*
p64
aVupdate_devfreq
p65
aVmodule:drivers/infiniband/**
p66
aVacpi_ec_add_query_handler
p67
aVacpi_ec_remove_query_handler
p68
aVfirst_ec
p69
aVdebugfs_create_automount
p70
aVmodule:drivers/iio/imu/inv_mpu6050/*
p71
aVdrm_crtc_accurate_vblank_count
p72
aVacpi_nfit_desc_init
p73
aVacpi_nfit_init
p74
aVloop_register_transfer
p75
aVxen_xlate_*
p76
aVnf_nat_masquerade_ipv4_register_notifier
p77
aVnf_nat_masquerade_ipv6_register_notifier
p78
aVdfltcc_*
p79
aVmodule:drivers/scsi/hisi_sas/*
p80
aV__gfn_*
p81
aV__kvmhv_*
p82
aV__kvm_*
p83
aV__xive_vm_h_*
p84
aVgfn_*
p85
aVh_ipi_redirect
p86
aVhalt_poll_ns*
p87
aVkvm_*
p88
aVkvmhv_*
p89
aVkvmppc_*
p90
aVmark_page_dirty
p91
aVvcpu_*
p92
aVmodule:arch/powerpc/kvm/*
p93
aVmodule:arch/s390/kvm/*
p94
aVmodule:arch/x86/kvm/*
p95
aVuv_info
p96
aVxhci_init_driver
p97
ass(Vbase
p98
tp99
(dp100
Varches
p101
(lp102
Valpha
p103
aVamd64
p104
aVarm64
p105
aVarm64ilp32
p106
aVarmel
p107
aVarmhf
p108
aVhppa
p109
aVi386
p110
aVia64
p111
aVm68k
p112
aVmips
p113
aVmips64
p114
aVmips64el
p115
aVmips64r6
p116
aVmips64r6el
p117
aVmipsel
p118
aVmipsn32
p119
aVmipsn32el
p120
aVmipsn32r6
p121
aVmipsn32r6el
p122
aVmipsr6
p123
aVmipsr6el
p124
aVpowerpc
p125
aVppc64
p126
aVppc64el
p127
aVriscv64
p128
aVs390
p129
aVs390x
p130
aVsh3
p131
aVsh4
p132
aVsparc
p133
aVsparc64
p134
aVx32
p135
asVcompiler
p136
Vgcc-10
p137
sVfeaturesets
p138
(lp139
Vnone
p140
aVrt
p141
ass(Vbuild
p142
tp143
(dp144
Vsigned-code
p145
I00
sVtrusted-certs
p146
Vdebian/certs/debian-uefi-certs.pem
p147
ss(Vbase
p148
NVrt
p149
tp150
(dp151
Venabled
p152
I01
ss(Vdescription
p153
tp154
(dp155
Vpart-long-up
p156
VThis kernel is not suitable for SMP (multi-processor, multi-core or hyper-threaded) systems.
p157
ss(Vimage
p158
tp159
(dp160
Vinitramfs-generators
p161
(lp162
Vinitramfs-tools
p163
aVinitramfs-fallback
p164
asVbreaks
p165
(lp166
Vfwupdate (<< 12-7)
p167
aVwireless-regdb (<< 2019.06.03-1~)
p168
asVrecommends
p169
(lp170
Vapparmor
p171
ass(Vrelations
p172
tp173
(dp174
Vgcc-10
p175
Vgcc-10 <!stage1 !cross !pkg.linux.nokernel>, gcc-10-@gnu-type-package@ <!stage1 cross !pkg.linux.nokernel>
p176
sVinitramfs-fallback
p177
Vlinux-initramfs-tool
p178
sVinitramfs-tools
p179
Vinitramfs-tools (>= 0.120+deb8u2)
p180
ss(Vbase
p181
Valpha
p182
tp183
(dp184
Vdefault-flavour
p185
Valpha-smp
p186
sVkernel-arch
p187
Valpha
p188
sVfeaturesets
p189
(lp190
Vnone
p191
ass(Vbuild
p192
g182
tp193
(dp194
Vimage-file
p195
Varch/alpha/boot/vmlinux.gz
p196
ss(Vimage
p197
g182
tp198
(dp199
Vsuggests
p200
(lp201
Vaboot
p202
aVfdutils
p203
asVinstall-stem
p204
Vvmlinuz
p205
ss(Vdescription
p206
g182
NValpha-generic
p207
tp208
(dp209
Vhardware
p210
VAlpha
p211
sVhardware-long
p212
VDEC Alpha systems with extended kernel start address (Wildfire, Titan, Marvel)
p213
ss(Vdescription
p214
g182
NValpha-smp
p215
tp216
(dp217
Vhardware
p218
VAlpha SMP
p219
sVhardware-long
p220
VDEC Alpha SMP systems with extended kernel start address (Wildfire, Titan, Marvel)
p221
ss(Vbase
p222
g182
g191
tp223
(dp224
Vflavours
p225
(lp226
Valpha-generic
p227
aValpha-smp
p228
asVimplicit-flavour
p229
I01
ss(Vbase
p230
Vamd64
p231
tp232
(dp233
Vfeaturesets
p234
(lp235
Vnone
p236
aVrt
p237
asVkernel-arch
p238
Vx86
p239
ss(Vbuild
p240
g231
tp241
(dp242
Vimage-file
p243
Varch/x86/boot/bzImage
p244
sVsigned-code
p245
I01
sVvdso
p246
I01
ss(Vimage
p247
g231
tp248
(dp249
Vbootloaders
p250
(lp251
Vgrub-pc
p252
aVgrub-efi-amd64
p253
aVextlinux
p254
asVinstall-stem
p255
Vvmlinuz
p256
ss(Vrelations
p257
g231
tp258
(dp259
Vheaders%gcc-10
p260
Vlinux-compiler-gcc-10-x86
p261
ss(Vdescription
p262
g231
NVamd64
p263
tp264
(dp265
Vhardware
p266
V64-bit PCs
p267
sVhardware-long
p268
VPCs with AMD64, Intel 64 or VIA Nano processors
p269
ss(Vdescription
p270
g231
NVcloud-amd64
p271
tp272
(dp273
Vhardware
p274
Vx86-64 cloud
p275
sVhardware-long
p276
Vcloud platforms including Amazon EC2, Microsoft Azure, and Google Compute Engine
p277
ss(Vbase
p278
g231
Vnone
p279
tp280
(dp281
Vflavours
p282
(lp283
Vamd64
p284
aVcloud-amd64
p285
asVdefault-flavour
p286
Vamd64
p287
sVquick-flavour
p288
Vcloud-amd64
p289
ss(Vimage
p290
g231
g279
Vcloud-amd64
p291
tp292
(dp293
Vconfigs
p294
(lp295
Vconfig.cloud
p296
aVamd64/config.cloud-amd64
p297
ass(Vbase
p298
g231
Vrt
p299
tp300
(dp301
Vflavours
p302
(lp303
Vamd64
p304
ass(Vbase
p305
Varm64
p306
tp307
(dp308
Vcross-compile-compat
p309
Varm-linux-gnueabihf-
p310
sVkernel-arch
p311
Varm64
p312
sVfeaturesets
p313
(lp314
Vnone
p315
aVrt
p316
ass(Vbuild
p317
g306
tp318
(dp319
Vimage-file
p320
Varch/arm64/boot/Image
p321
sVsigned-code
p322
I01
sVvdso
p323
I01
ss(Vimage
p324
g306
tp325
(dp326
Vinstall-stem
p327
Vvmlinuz
p328
ss(Vdescription
p329
g306
NVarm64
p330
tp331
(dp332
Vhardware
p333
V64-bit ARMv8 machines
p334
ss(Vdescription
p335
g306
NVcloud-arm64
p336
tp337
(dp338
Vhardware
p339
Varm64 cloud
p340
sVhardware-long
p341
Vcloud platforms supporting arm64 virtual machines
p342
ss(Vimage
p343
g306
NVarm64
p344
tp345
(dp346
s(Vrelations
p347
g306
tp348
(dp349
Vgcc-10
p350
Vgcc-10 <!stage1 !cross !pkg.linux.nokernel>, gcc-10-aarch64-linux-gnu <!stage1 cross !pkg.linux.nokernel>, gcc-arm-linux-gnueabihf <!stage1 !pkg.linux.nokernel>
p351
sVheaders%gcc-10
p352
Vgcc-10
p353
ss(Vbase
p354
g306
Vnone
p355
tp356
(dp357
Vflavours
p358
(lp359
Varm64
p360
aVcloud-arm64
p361
asVdefault-flavour
p362
Varm64
p363
sVquick-flavour
p364
Vcloud-arm64
p365
ss(Vimage
p366
g306
g355
Vcloud-arm64
p367
tp368
(dp369
Vconfigs
p370
(lp371
Vconfig.cloud
p372
aVarm64/config.cloud-arm64
p373
ass(Vbase
p374
g306
Vrt
p375
tp376
(dp377
Vflavours
p378
(lp379
Varm64
p380
ass(Vbase
p381
Varm64ilp32
p382
tp383
(dp384
Vkernel-arch
p385
Varm64
p386
sVfeaturesets
p387
(lp388
ss(Vbase
p389
Varmel
p390
tp391
(dp392
Vkernel-arch
p393
Varm
p394
sg189
(lp395
g191
ass(Vbuild
p396
g390
tp397
(dp398
Vimage-file
p399
Varch/arm/boot/zImage
p400
sVuncompressed-image-file
p401
Varch/arm/boot/Image
p402
ss(Vimage
p403
g390
tp404
(dp405
Vinstall-stem
p406
Vvmlinuz
p407
ss(Vrelations
p408
g390
tp409
(dp410
Vheaders%gcc-10
p411
Vlinux-compiler-gcc-10-arm
p412
ss(Vdescription
p413
g390
NVmarvell
p414
tp415
(dp416
Vhardware
p417
VMarvell Kirkwood/Orion
p418
sVhardware-long
p419
VMarvell Kirkwood and Orion based systems (https://wiki.debian.org/ArmEabiPort#Supported_hardware)
p420
ss(Vdescription
p421
g390
NVrpi
p422
tp423
(dp424
Vhardware
p425
VRaspberry Pi Zero, Zero W and 1
p426
sVhardware-long
p427
VRaspberry Pi Zero, Zero W and 1 based systems
p428
ss(Vimage
p429
g390
NVmarvell
p430
tp431
(dp432
Vrecommends
p433
(lp434
Vu-boot-tools
p435
asVcheck-size
p436
I2729712
sVcheck-size-with-dtb
p437
I01
ss(g222
g390
g191
tp438
(dp439
g225
(lp440
Vmarvell
p441
aVrpi
p442
asg229
I01
ss(Vbase
p443
Varmhf
p444
tp445
(dp446
Vfeaturesets
p447
(lp448
Vnone
p449
aVrt
p450
asVkernel-arch
p451
Varm
p452
ss(Vbuild
p453
g444
tp454
(dp455
Vimage-file
p456
Varch/arm/boot/zImage
p457
sVvdso
p458
I01
ss(Vimage
p459
g444
tp460
(dp461
Vinstall-stem
p462
Vvmlinuz
p463
ss(Vrelations
p464
g444
tp465
(dp466
Vheaders%gcc-10
p467
Vlinux-compiler-gcc-10-arm
p468
ss(Vdescription
p469
g444
NVarmmp
p470
tp471
(dp472
Vhardware
p473
VARMv7 multiplatform compatible SoCs
p474
sVhardware-long
p475
VARMv7 multiplatform kernel. See https://wiki.debian.org/DebianKernel/ARMMP for details of supported platforms
p476
ss(Vdescription
p477
g444
NVarmmp-lpae
p478
tp479
(dp480
Vhardware
p481
VARMv7 multiplatform compatible SoCs supporting LPAE
p482
sVhardware-long
p483
VARMv7 multiplatform kernel supporting LPAE. See https://wiki.debian.org/DebianKernel/ARMMP for details of supported platforms.
p484
ss(Vbase
p485
g444
Vnone
p486
tp487
(dp488
Vflavours
p489
(lp490
Varmmp
p491
aVarmmp-lpae
p492
asVdefault-flavour
p493
Varmmp
p494
ss(Vbase
p495
g444
Vrt
p496
tp497
(dp498
Vflavours
p499
(lp500
Varmmp
p501
ass(Vbase
p502
Vhppa
p503
tp504
(dp505
Vdefault-flavour
p506
Vparisc
p507
sVkernel-arch
p508
Vparisc
p509
sg189
(lp510
g191
ass(Vbuild
p511
g503
tp512
(dp513
Vimage-file
p514
Varch/parisc/boot/bzImage
p515
ss(Vimage
p516
g503
tp517
(dp518
Vsuggests
p519
(lp520
Vpalo
p521
asVinstall-stem
p522
Vvmlinuz
p523
ss(Vdescription
p524
g503
NVparisc
p525
tp526
(dp527
Vhardware
p528
V32-bit PA-RISC
p529
sVhardware-long
p530
VHP PA-RISC 32-bit systems with max 4 GB RAM
p531
ss(Vbase
p532
g503
NVparisc64
p533
tp534
(dp535
Vcflags
p536
V-fno-cse-follow-jumps
p537
sVoverride-host-type
p538
Vhppa64-linux-gnu
p539
ss(Vdescription
p540
g503
NVparisc64
p541
tp542
(dp543
Vhardware
p544
V64-bit PA-RISC
p545
sVhardware-long
p546
VHP PA-RISC 64-bit systems with support for more than 4 GB RAM
p547
ss(Vrelations
p548
g503
tp549
(dp550
Vgcc-10
p551
Vgcc-10 <!stage1 !cross !pkg.linux.nokernel>, gcc-10-hppa-linux-gnu <!stage1 cross !pkg.linux.nokernel>, binutils-hppa64-linux-gnu <!stage1 !pkg.linux.nokernel>, gcc-10-hppa64-linux-gnu <!stage1 !pkg.linux.nokernel>
p552
ss(g222
g503
g191
tp553
(dp554
g225
(lp555
Vparisc
p556
aVparisc64
p557
asg229
I01
ss(Vbase
p558
Vi386
p559
tp560
(dp561
Vfeaturesets
p562
(lp563
Vnone
p564
aVrt
p565
asVkernel-arch
p566
Vx86
p567
ss(Vbuild
p568
g559
tp569
(dp570
Vimage-file
p571
Varch/x86/boot/bzImage
p572
sVsigned-code
p573
I01
sVvdso
p574
I01
ss(Vdescription
p575
g559
tp576
(dp577
Vpart-long-pae
p578
VThis kernel requires PAE (Physical Address Extension). This feature is supported by the Intel Pentium Pro/II/III/4/4M/D, Xeon, Core and Atom; AMD Geode NX, Athlon (K7), Duron, Opteron, Sempron, Turion or Phenom; Transmeta Efficeon; VIA C7; and some other processors.
p579
ss(Vimage
p580
g559
tp581
(dp582
Vbootloaders
p583
(lp584
Vgrub-pc
p585
aVgrub-efi-ia32
p586
aVextlinux
p587
asVinstall-stem
p588
Vvmlinuz
p589
ss(Vrelations
p590
g559
tp591
(dp592
Vheaders%gcc-10
p593
Vlinux-compiler-gcc-10-x86
p594
ss(Vdescription
p595
g559
NV686
p596
tp597
(dp598
Vhardware
p599
Volder PCs
p600
sVhardware-long
p601
VPCs with one or more processors not supporting PAE
p602
ss(Vdescription
p603
g559
NV686-pae
p604
tp605
(dp606
Vhardware
p607
Vmodern PCs
p608
sVhardware-long
p609
VPCs with one or more processors supporting PAE
p610
sVparts
p611
(lp612
Vpae
p613
ass(Vbase
p614
g559
Vnone
p615
tp616
(dp617
Vflavours
p618
(lp619
V686
p620
aV686-pae
p621
asVdefault-flavour
p622
V686-pae
p623
ss(Vbase
p624
g559
Vrt
p625
tp626
(dp627
Vflavours
p628
(lp629
V686-pae
p630
ass(Vbase
p631
Via64
p632
tp633
(dp634
Vdefault-flavour
p635
Vitanium
p636
sVkernel-arch
p637
Via64
p638
sg189
(lp639
g191
ass(Vbuild
p640
g632
tp641
(dp642
Vimage-file
p643
Vvmlinux.gz
p644
ss(Vimage
p645
g632
tp646
(dp647
Vbootloaders
p648
(lp649
Vgrub-efi-ia64
p650
asVinstall-stem
p651
Vvmlinuz
p652
ss(Vdescription
p653
g632
NVitanium
p654
tp655
(dp656
Vhardware
p657
VItanium (Merced)
p658
sVhardware-long
p659
Vsystems with original Itanium (Merced) processors
p660
ss(Vdescription
p661
g632
NVmckinley
p662
tp663
(dp664
Vhardware
p665
VItanium 2+
p666
sVhardware-long
p667
Vsystems with Itanium 2 or 9300/9500/9700-series processors
p668
ss(g222
g632
g191
tp669
(dp670
g225
(lp671
Vitanium
p672
aVmckinley
p673
asg229
I01
ss(Vbase
p674
Vm68k
p675
tp676
(dp677
Vcflags
p678
V-ffreestanding
p679
sVdefault-flavour
p680
Vm68k
p681
sVkernel-arch
p682
Vm68k
p683
sg189
(lp684
g191
ass(Vbuild
p685
g675
tp686
(dp687
Vimage-file
p688
Vvmlinux
p689
ss(Vimage
p690
g675
tp691
(dp692
Vsuggests
p693
(lp694
Vvmelilo
p695
aVfdutils
p696
asVinstall-stem
p697
Vvmlinux
p698
ss(Vdescription
p699
g675
NVm68k
p700
tp701
(dp702
Vhardware
p703
VMotorola MC68020+ family
p704
ss(g222
g675
g191
tp705
(dp706
g225
(lp707
Vm68k
p708
asg229
I01
ss(Vbase
p709
Vmips
p710
tp711
(dp712
Vkernel-arch
p713
Vmips
p714
sg189
(lp715
g191
ass(Vbuild
p716
g710
tp717
(dp718
Vimage-file
p719
Vvmlinuz
p720
ss(Vimage
p721
g710
tp722
(dp723
Vinstall-stem
p724
Vvmlinuz
p725
ss(Vdescription
p726
g710
NV4kc-malta
p727
tp728
(dp729
Vhardware
p730
VMIPS Malta
p731
sVhardware-long
p732
VMIPS Malta boards
p733
ss(Vimage
p734
g710
NV4kc-malta
p735
tp736
(dp737
Vconfigs
p738
(lp739
Vkernelarch-mips/config.malta
p740
aVkernelarch-mips/config.mips32r2
p741
ass(Vdescription
p742
g710
NVmips32r2eb
p743
tp744
(dp745
Vhardware
p746
VMIPS Generic (mips32r2eb)
p747
sVhardware-long
p748
VMIPS Generic platform (mips32r2eb)
p749
ss(Vimage
p750
g710
NVmips32r2eb
p751
tp752
(dp753
Vconfigs
p754
(lp755
Vkernelarch-mips/config.boston
p756
aVkernelarch-mips/config.mips32r2
p757
ass(Vdescription
p758
g710
NVocteon
p759
tp760
(dp761
Vhardware
p762
VOcteon
p763
sVhardware-long
p764
VCavium Networks Octeon
p765
ss(Vbuild
p766
g710
NVocteon
p767
tp768
(dp769
Vimage-file
p770
Vvmlinux
p771
ss(Vimage
p772
g710
NVocteon
p773
tp774
(dp775
Vinstall-stem
p776
Vvmlinux
p777
sVconfigs
p778
(lp779
Vkernelarch-mips/config.octeon
p780
ass(g222
g710
g191
tp781
(dp782
g225
(lp783
V4kc-malta
p784
aVmips32r2eb
p785
aVocteon
p786
asg229
I01
ss(Vbase
p787
Vmips64
p788
tp789
(dp790
Vkernel-arch
p791
Vmips
p792
sg189
(lp793
g191
ass(Vbuild
p794
g788
tp795
(dp796
Vimage-file
p797
Vvmlinuz
p798
ss(Vimage
p799
g788
tp800
(dp801
Vinstall-stem
p802
Vvmlinuz
p803
ss(Vdescription
p804
g788
NV5kc-malta
p805
tp806
(dp807
Vhardware
p808
VMIPS Malta
p809
sVhardware-long
p810
VMIPS Malta boards
p811
ss(Vimage
p812
g788
NV5kc-malta
p813
tp814
(dp815
Vconfigs
p816
(lp817
Vkernelarch-mips/config.malta
p818
aVkernelarch-mips/config.mips64r2
p819
ass(Vdescription
p820
g788
NVmips64r2eb
p821
tp822
(dp823
Vhardware
p824
VMIPS Generic (mips64r2eb)
p825
sVhardware-long
p826
VMIPS Generic platform (mips64r2eb)
p827
ss(Vimage
p828
g788
NVmips64r2eb
p829
tp830
(dp831
Vconfigs
p832
(lp833
Vkernelarch-mips/config.boston
p834
aVkernelarch-mips/config.mips64r2
p835
ass(Vdescription
p836
g788
NVocteon
p837
tp838
(dp839
Vhardware
p840
VOcteon
p841
sVhardware-long
p842
VCavium Networks Octeon
p843
ss(Vbuild
p844
g788
NVocteon
p845
tp846
(dp847
Vimage-file
p848
Vvmlinux
p849
ss(Vimage
p850
g788
NVocteon
p851
tp852
(dp853
Vinstall-stem
p854
Vvmlinux
p855
sVconfigs
p856
(lp857
Vkernelarch-mips/config.octeon
p858
ass(g222
g788
g191
tp859
(dp860
g225
(lp861
V5kc-malta
p862
aVmips64r2eb
p863
aVocteon
p864
asg229
I01
ss(Vbase
p865
Vmips64el
p866
tp867
(dp868
Vkernel-arch
p869
Vmips
p870
sg189
(lp871
g191
ass(Vbuild
p872
g866
tp873
(dp874
Vimage-file
p875
Vvmlinuz
p876
ss(Vimage
p877
g866
tp878
(dp879
Vinstall-stem
p880
Vvmlinuz
p881
ss(Vdescription
p882
g866
NV5kc-malta
p883
tp884
(dp885
Vhardware
p886
VMIPS Malta
p887
sVhardware-long
p888
VMIPS Malta boards
p889
ss(Vimage
p890
g866
NV5kc-malta
p891
tp892
(dp893
Vconfigs
p894
(lp895
Vkernelarch-mips/config.malta
p896
aVkernelarch-mips/config.mips64r2
p897
ass(Vdescription
p898
g866
NVmips64r2el
p899
tp900
(dp901
Vhardware
p902
VMIPS Generic (mips64r2el)
p903
sVhardware-long
p904
VMIPS Generic platform (mips64r2el)
p905
ss(Vimage
p906
g866
NVmips64r2el
p907
tp908
(dp909
Vconfigs
p910
(lp911
Vkernelarch-mips/config.boston
p912
aVkernelarch-mips/config.mips64r2
p913
ass(Vdescription
p914
g866
NVloongson-3
p915
tp916
(dp917
Vhardware
p918
VLoongson 3A/3B
p919
sVhardware-long
p920
VLoongson 3A or 3B based systems (e.g. from Loongson or Lemote)
p921
ss(Vimage
p922
g866
NVloongson-3
p923
tp924
(dp925
Vrecommends
p926
(lp927
Vpmon-update
p928
asVconfigs
p929
(lp930
Vkernelarch-mips/config.loongson-3
p931
ass(Vdescription
p932
g866
NVocteon
p933
tp934
(dp935
Vhardware
p936
VOcteon
p937
sVhardware-long
p938
VCavium Networks Octeon
p939
ss(Vbuild
p940
g866
NVocteon
p941
tp942
(dp943
Vimage-file
p944
Vvmlinux
p945
ss(Vimage
p946
g866
NVocteon
p947
tp948
(dp949
Vinstall-stem
p950
Vvmlinux
p951
sVconfigs
p952
(lp953
Vkernelarch-mips/config.octeon
p954
ass(g222
g866
g191
tp955
(dp956
g225
(lp957
V5kc-malta
p958
aVmips64r2el
p959
aVloongson-3
p960
aVocteon
p961
asg229
I01
ss(Vbase
p962
Vmips64r6
p963
tp964
(dp965
Vkernel-arch
p966
Vmips
p967
sg189
(lp968
g191
ass(Vbuild
p969
g963
tp970
(dp971
Vimage-file
p972
Vvmlinuz
p973
ss(Vimage
p974
g963
tp975
(dp976
Vinstall-stem
p977
Vvmlinuz
p978
ss(Vdescription
p979
g963
NVmips64r6eb
p980
tp981
(dp982
Vhardware
p983
VMIPS Generic (mips64r6eb)
p984
sVhardware-long
p985
VMIPS Generic platform (mips64r6eb)
p986
ss(Vimage
p987
g963
NVmips64r6eb
p988
tp989
(dp990
Vconfigs
p991
(lp992
Vkernelarch-mips/config.boston
p993
aVkernelarch-mips/config.mips64r6
p994
ass(g222
g963
g191
tp995
(dp996
g225
(lp997
Vmips64r6eb
p998
asg229
I01
ss(Vbase
p999
Vmips64r6el
p1000
tp1001
(dp1002
Vkernel-arch
p1003
Vmips
p1004
sg189
(lp1005
g191
ass(Vbuild
p1006
g1000
tp1007
(dp1008
Vimage-file
p1009
Vvmlinuz
p1010
ss(Vimage
p1011
g1000
tp1012
(dp1013
Vinstall-stem
p1014
Vvmlinuz
p1015
ss(Vdescription
p1016
g1000
NVmips64r6el
p1017
tp1018
(dp1019
Vhardware
p1020
VMIPS Generic (mips64r6el)
p1021
sVhardware-long
p1022
VMIPS Generic platform (mips64r6el)
p1023
ss(Vimage
p1024
g1000
NVmips64r6el
p1025
tp1026
(dp1027
Vconfigs
p1028
(lp1029
Vkernelarch-mips/config.boston
p1030
aVkernelarch-mips/config.mips64r6
p1031
ass(g222
g1000
g191
tp1032
(dp1033
g225
(lp1034
Vmips64r6el
p1035
asg229
I01
ss(Vbase
p1036
Vmipsel
p1037
tp1038
(dp1039
Vkernel-arch
p1040
Vmips
p1041
sg189
(lp1042
g191
ass(Vbuild
p1043
g1037
tp1044
(dp1045
Vimage-file
p1046
Vvmlinuz
p1047
ss(Vimage
p1048
g1037
tp1049
(dp1050
Vinstall-stem
p1051
Vvmlinuz
p1052
ss(Vdescription
p1053
g1037
NV4kc-malta
p1054
tp1055
(dp1056
Vhardware
p1057
VMIPS Malta
p1058
sVhardware-long
p1059
VMIPS Malta boards
p1060
ss(Vimage
p1061
g1037
NV4kc-malta
p1062
tp1063
(dp1064
Vconfigs
p1065
(lp1066
Vkernelarch-mips/config.malta
p1067
aVkernelarch-mips/config.mips32r2
p1068
ass(Vdescription
p1069
g1037
NVmips32r2el
p1070
tp1071
(dp1072
Vhardware
p1073
VMIPS Generic (mips32r2el)
p1074
sVhardware-long
p1075
VMIPS Generic platform (mips32r2el)
p1076
ss(Vimage
p1077
g1037
NVmips32r2el
p1078
tp1079
(dp1080
Vconfigs
p1081
(lp1082
Vkernelarch-mips/config.boston
p1083
aVkernelarch-mips/config.mips32r2
p1084
ass(Vdescription
p1085
g1037
NVloongson-3
p1086
tp1087
(dp1088
Vhardware
p1089
VLoongson 3A/3B
p1090
sVhardware-long
p1091
VLoongson 3A or 3B based systems (e.g. from Loongson or Lemote)
p1092
ss(Vimage
p1093
g1037
NVloongson-3
p1094
tp1095
(dp1096
Vrecommends
p1097
(lp1098
Vpmon-update
p1099
asVconfigs
p1100
(lp1101
Vkernelarch-mips/config.loongson-3
p1102
ass(Vdescription
p1103
g1037
NVocteon
p1104
tp1105
(dp1106
Vhardware
p1107
VOcteon
p1108
sVhardware-long
p1109
VCavium Networks Octeon
p1110
ss(Vbuild
p1111
g1037
NVocteon
p1112
tp1113
(dp1114
Vimage-file
p1115
Vvmlinux
p1116
ss(Vimage
p1117
g1037
NVocteon
p1118
tp1119
(dp1120
Vinstall-stem
p1121
Vvmlinux
p1122
sVconfigs
p1123
(lp1124
Vkernelarch-mips/config.octeon
p1125
ass(g222
g1037
g191
tp1126
(dp1127
g225
(lp1128
V4kc-malta
p1129
aVmips32r2el
p1130
aVloongson-3
p1131
aVocteon
p1132
asg229
I01
ss(Vbase
p1133
Vmipsn32
p1134
tp1135
(dp1136
Vkernel-arch
p1137
Vmips
p1138
sVfeaturesets
p1139
(lp1140
ss(Vbase
p1141
Vmipsn32el
p1142
tp1143
(dp1144
Vkernel-arch
p1145
Vmips
p1146
sVfeaturesets
p1147
(lp1148
ss(Vbase
p1149
Vmipsn32r6
p1150
tp1151
(dp1152
Vkernel-arch
p1153
Vmips
p1154
sVfeaturesets
p1155
(lp1156
ss(Vbase
p1157
Vmipsn32r6el
p1158
tp1159
(dp1160
Vkernel-arch
p1161
Vmips
p1162
sVfeaturesets
p1163
(lp1164
ss(Vbase
p1165
Vmipsr6
p1166
tp1167
(dp1168
Vkernel-arch
p1169
Vmips
p1170
sg189
(lp1171
g191
ass(Vbuild
p1172
g1166
tp1173
(dp1174
Vimage-file
p1175
Vvmlinuz
p1176
ss(Vimage
p1177
g1166
tp1178
(dp1179
Vinstall-stem
p1180
Vvmlinuz
p1181
ss(Vdescription
p1182
g1166
NVmips32r6eb
p1183
tp1184
(dp1185
Vhardware
p1186
VMIPS Generic (mips32r6eb)
p1187
sVhardware-long
p1188
VMIPS Generic platform (mips32r6eb)
p1189
ss(Vimage
p1190
g1166
NVmips32r6eb
p1191
tp1192
(dp1193
Vconfigs
p1194
(lp1195
Vkernelarch-mips/config.boston
p1196
aVkernelarch-mips/config.mips32r6
p1197
ass(g222
g1166
g191
tp1198
(dp1199
g225
(lp1200
Vmips32r6eb
p1201
asg229
I01
ss(Vbase
p1202
Vmipsr6el
p1203
tp1204
(dp1205
Vkernel-arch
p1206
Vmips
p1207
sg189
(lp1208
g191
ass(Vbuild
p1209
g1203
tp1210
(dp1211
Vimage-file
p1212
Vvmlinuz
p1213
ss(Vimage
p1214
g1203
tp1215
(dp1216
Vinstall-stem
p1217
Vvmlinuz
p1218
ss(Vdescription
p1219
g1203
NVmips32r6el
p1220
tp1221
(dp1222
Vhardware
p1223
VMIPS Generic (mips32r6el)
p1224
sVhardware-long
p1225
VMIPS Generic platform (mips32r6el)
p1226
ss(Vimage
p1227
g1203
NVmips32r6el
p1228
tp1229
(dp1230
Vconfigs
p1231
(lp1232
Vkernelarch-mips/config.boston
p1233
aVkernelarch-mips/config.mips32r6
p1234
ass(g222
g1203
g191
tp1235
(dp1236
g225
(lp1237
Vmips32r6el
p1238
asg229
I01
ss(Vbase
p1239
Vpowerpc
p1240
tp1241
(dp1242
Vkernel-arch
p1243
Vpowerpc
p1244
sg189
(lp1245
g191
ass(Vbuild
p1246
g1240
tp1247
(dp1248
Vimage-file
p1249
Vvmlinux
p1250
ss(Vimage
p1251
g1240
tp1252
(dp1253
Vconfigs
p1254
(lp1255
sVbootloaders
p1256
(lp1257
Vgrub-ieee1275
p1258
asVsuggests
p1259
(lp1260
Vmkvmlinuz
p1261
asVinstall-stem
p1262
Vvmlinux
p1263
ss(Vdescription
p1264
g1240
NVpowerpc
p1265
tp1266
(dp1267
Vhardware
p1268
Vuniprocessor 32-bit PowerPC
p1269
ss(Vdescription
p1270
g1240
NVpowerpc-smp
p1271
tp1272
(dp1273
Vhardware
p1274
Vmultiprocessor 32-bit PowerPC
p1275
ss(Vimage
p1276
g1240
NVpowerpc-smp
p1277
tp1278
(dp1279
Vconfigs
p1280
(lp1281
Vpowerpc/config.powerpc
p1282
aVpowerpc/config.powerpc-smp
p1283
ass(Vdescription
p1284
g1240
NVpowerpc64
p1285
tp1286
(dp1287
Vhardware
p1288
V64-bit PowerPC
p1289
ss(Vimage
p1290
g1240
NVpowerpc64
p1291
tp1292
(dp1293
Vconfigs
p1294
(lp1295
Vkernelarch-powerpc/config-arch-64
p1296
aVkernelarch-powerpc/config-arch-64-be
p1297
ass(g222
g1240
g191
tp1298
(dp1299
g225
(lp1300
Vpowerpc
p1301
aVpowerpc-smp
p1302
aVpowerpc64
p1303
asg229
I01
ss(Vbase
p1304
Vppc64
p1305
tp1306
(dp1307
Vdefault-flavour
p1308
Vpowerpc64
p1309
sVkernel-arch
p1310
Vpowerpc
p1311
sg189
(lp1312
g191
ass(Vbuild
p1313
g1305
tp1314
(dp1315
Vimage-file
p1316
Vvmlinux
p1317
ss(Vimage
p1318
g1305
tp1319
(dp1320
Vconfigs
p1321
(lp1322
sVbootloaders
p1323
(lp1324
Vgrub-ieee1275
p1325
asVsuggests
p1326
(lp1327
Vmkvmlinuz
p1328
asVinstall-stem
p1329
Vvmlinux
p1330
ss(Vdescription
p1331
g1305
NVpowerpc64
p1332
tp1333
(dp1334
Vhardware
p1335
V64-bit PowerPC
p1336
ss(Vimage
p1337
g1305
NVpowerpc64
p1338
tp1339
(dp1340
Vconfigs
p1341
(lp1342
Vkernelarch-powerpc/config-arch-64
p1343
aVkernelarch-powerpc/config-arch-64-be
p1344
ass(g222
g1305
g191
tp1345
(dp1346
g225
(lp1347
Vpowerpc64
p1348
asg229
I01
ss(Vbase
p1349
Vppc64el
p1350
tp1351
(dp1352
Vdefault-flavour
p1353
Vpowerpc64le
p1354
sVkernel-arch
p1355
Vpowerpc
p1356
sg189
(lp1357
g191
ass(Vbuild
p1358
g1350
tp1359
(dp1360
Vimage-file
p1361
Vvmlinux
p1362
ss(Vimage
p1363
g1350
tp1364
(dp1365
Vconfigs
p1366
(lp1367
sVbootloaders
p1368
(lp1369
Vgrub-ieee1275
p1370
asVsuggests
p1371
(lp1372
Vmkvmlinuz
p1373
asVinstall-stem
p1374
Vvmlinux
p1375
ss(Vdescription
p1376
g1350
NVpowerpc64le
p1377
tp1378
(dp1379
Vhardware
p1380
VLittle-endian 64-bit PowerPC
p1381
ss(Vimage
p1382
g1350
NVpowerpc64le
p1383
tp1384
(dp1385
Vconfigs
p1386
(lp1387
Vkernelarch-powerpc/config-arch-64
p1388
aVkernelarch-powerpc/config-arch-64-le
p1389
ass(g222
g1350
g191
tp1390
(dp1391
g225
(lp1392
Vpowerpc64le
p1393
asg229
I01
ss(Vbase
p1394
Vriscv64
p1395
tp1396
(dp1397
Vkernel-arch
p1398
Vriscv
p1399
sVfeaturesets
p1400
(lp1401
Vnone
p1402
ass(Vbuild
p1403
g1395
tp1404
(dp1405
Vimage-file
p1406
Varch/riscv/boot/Image
p1407
sVvdso
p1408
I01
ss(Vimage
p1409
g1395
tp1410
(dp1411
Vinstall-stem
p1412
Vvmlinux
p1413
ss(Vdescription
p1414
g1395
NVriscv64
p1415
tp1416
(dp1417
Vhardware
p1418
V64-bit RISC-V platforms
p1419
sVhardware-long
p1420
V64-bit RISC-V platforms
p1421
ss(Vbase
p1422
g1395
Vnone
p1423
tp1424
(dp1425
Vflavours
p1426
(lp1427
Vriscv64
p1428
asVdefault-flavour
p1429
Vriscv64
p1430
ss(Vbase
p1431
Vs390
p1432
tp1433
(dp1434
Vkernel-arch
p1435
Vs390
p1436
sVfeaturesets
p1437
(lp1438
ss(Vbase
p1439
Vs390x
p1440
tp1441
(dp1442
Vdefault-flavour
p1443
Vs390x
p1444
sVkernel-arch
p1445
Vs390
p1446
sg189
(lp1447
g191
ass(Vbuild
p1448
g1440
tp1449
(dp1450
Vimage-file
p1451
Varch/s390/boot/bzImage
p1452
sVvdso
p1453
I01
ss(Vimage
p1454
g1440
tp1455
(dp1456
Vbootloaders
p1457
(lp1458
Vs390-tools
p1459
asVinstall-stem
p1460
Vvmlinuz
p1461
ss(Vrelations
p1462
g1440
tp1463
(dp1464
Vheaders%gcc-10
p1465
Vlinux-compiler-gcc-10-s390
p1466
ss(Vdescription
p1467
g1440
NVs390x
p1468
tp1469
(dp1470
Vhardware
p1471
VIBM zSeries
p1472
ss(g222
g1440
g191
tp1473
(dp1474
g225
(lp1475
Vs390x
p1476
asg229
I01
ss(Vbase
p1477
Vsh3
p1478
tp1479
(dp1480
Vkernel-arch
p1481
Vsh
p1482
sVfeaturesets
p1483
(lp1484
ss(Vbase
p1485
Vsh4
p1486
tp1487
(dp1488
Vkernel-arch
p1489
Vsh
p1490
sg189
(lp1491
g191
ass(Vbuild
p1492
g1486
tp1493
(dp1494
Vimage-file
p1495
Varch/sh/boot/zImage
p1496
ss(Vimage
p1497
g1486
tp1498
(dp1499
Vinstall-stem
p1500
Vvmlinuz
p1501
ss(Vdescription
p1502
g1486
NVsh7751r
p1503
tp1504
(dp1505
Vhardware
p1506
Vsh7751r
p1507
sVhardware-long
p1508
VRenesas SH7751R R2D plus board
p1509
ss(Vdescription
p1510
g1486
NVsh7785lcr
p1511
tp1512
(dp1513
Vhardware
p1514
Vsh7785lcr
p1515
sVhardware-long
p1516
VRenesas SH7785 reference board
p1517
ss(Vimage
p1518
g1486
NVsh7785lcr
p1519
tp1520
(dp1521
Vrecommends
p1522
(lp1523
Vu-boot-tools
p1524
asVcheck-size
p1525
I4194304
ss(g222
g1486
g191
tp1526
(dp1527
g225
(lp1528
Vsh7751r
p1529
aVsh7785lcr
p1530
asg229
I01
ss(Vbase
p1531
Vsparc
p1532
tp1533
(dp1534
Vkernel-arch
p1535
Vsparc
p1536
sVfeaturesets
p1537
(lp1538
ss(Vbase
p1539
Vsparc64
p1540
tp1541
(dp1542
Vdefault-flavour
p1543
Vsparc64-smp
p1544
sVkernel-arch
p1545
Vsparc
p1546
sg189
(lp1547
g191
ass(Vbuild
p1548
g1540
tp1549
(dp1550
Vimage-file
p1551
Vvmlinux
p1552
ss(Vimage
p1553
g1540
tp1554
(dp1555
Vconfigs
p1556
(lp1557
sVbootloaders
p1558
(lp1559
Vgrub-ieee1275
p1560
asVsuggests
p1561
(lp1562
Vfdutils
p1563
asVinstall-stem
p1564
Vvmlinux
p1565
ss(Vdescription
p1566
g1540
NVsparc64
p1567
tp1568
(dp1569
Vhardware
p1570
Vuniprocessor 64-bit UltraSPARC
p1571
ss(Vimage
p1572
g1540
NVsparc64
p1573
tp1574
(dp1575
Vconfigs
p1576
(lp1577
Vkernelarch-sparc/config-up
p1578
ass(Vdescription
p1579
g1540
NVsparc64-smp
p1580
tp1581
(dp1582
Vhardware
p1583
Vmultiprocessor 64-bit UltraSPARC
p1584
ss(Vimage
p1585
g1540
NVsparc64-smp
p1586
tp1587
(dp1588
Vconfigs
p1589
(lp1590
Vkernelarch-sparc/config-smp
p1591
ass(g222
g1540
g191
tp1592
(dp1593
g225
(lp1594
Vsparc64
p1595
aVsparc64-smp
p1596
asg229
I01
ss(Vbase
p1597
Vx32
p1598
tp1599
(dp1600
Vkernel-arch
p1601
Vx86
p1602
sVfeaturesets
p1603
(lp1604
ss(Vabi
p1605
NVrt
p1606
tp1607
(dp1608
Vignore-changes
p1609
(lp1610
V*
p1611
ass(Vdescription
p1612
Ng1606
tp1613
(dp1614
Vpart-long-rt
p1615
VThis kernel includes the PREEMPT_RT realtime patch set.
p1616
sVpart-short-rt
p1617
VPREEMPT_RT
p1618
sVparts
p1619
(lp1620
Vrt
p1621
ass(Vversion
p1622
tp1623
(dp1624
Vsource
p1625
V6.1.20-2~bpo11+1
p1626
sVupstream
p1627
V6.1
p1628
sVabiname_base
p1629
V6.1.0
p1630
sVabiname
p1631
V6.1.0-0.deb11.7
p1632
ss.